target datalayout = "e-m:e-p270:32:32-p271:32:32-p272:64:64-i64:64-i128:128-f80:128-n8:16:32:64-S128"
target triple = "x86_64-pc-linux-gnu"

%struct.nstime_t = type { i64, i32 }
%struct._packet_info = type { ptr, ptr, i32, i32, %struct.nstime_t, %struct.nstime_t, %struct.nstime_t, i8, ptr, ptr, ptr, ptr, %struct._address, %struct._address, %struct._address, %struct._address, %struct._address, %struct._address, i32, ptr, i8, [3 x i8], %struct.anon, i32, i32, i32, i32, ptr, i8, ptr, ptr, i16, i16, i32, i32, i16, i32, i32, ptr, ptr, ptr, i8, i8, i16, i16, i16, i32, i16, i16, ptr, ptr, ptr, ptr, ptr, i32, i32 }
%struct._address = type { i32, i32, ptr, ptr }
%struct.anon = type { i8, [3 x i8] }

@xmcp_service_protocol = internal global i16 -1, align 2
@xmcp_service_port = internal global i32 -1, align 4
@xmcp_it_service_port = internal global ptr null, align 8
@.str.253 = private unnamed_addr constant [11 x i8] c" (TCP: %s)\00", align 1
@.str.254 = private unnamed_addr constant [11 x i8] c" (UDP: %s)\00", align 1
@.str.255 = private unnamed_addr constant [12 x i8] c" (DCCP: %s)\00", align 1
@.str.256 = private unnamed_addr constant [12 x i8] c" (SCTP: %s)\00", align 1

; Function Attrs: null_pointer_is_valid sspstrong uwtable
define internal void @add_xmcp_port_name(ptr noundef %0) #0 {
  %2 = alloca ptr, align 8
  store ptr %0, ptr %2, align 8
  %3 = load ptr, ptr @xmcp_it_service_port, align 8
  %4 = icmp ne ptr %3, null
  br i1 %4, label %5, label %8

5:                                                ; preds = %1
  %6 = load i32, ptr @xmcp_service_port, align 4
  %7 = icmp eq i32 %6, -1
  br i1 %7, label %8, label %9

8:                                                ; preds = %5, %1
  br label %41

9:                                                ; preds = %5
  %10 = load i16, ptr @xmcp_service_protocol, align 2
  %11 = sext i16 %10 to i32
  switch i32 %11, label %40 [
    i32 6, label %12
    i32 17, label %19
    i32 33, label %26
    i32 132, label %33
  ]

12:                                               ; preds = %9
  %13 = load ptr, ptr @xmcp_it_service_port, align 8
  %14 = load ptr, ptr %2, align 8
  %15 = getelementptr inbounds nuw %struct._packet_info, ptr %14, i32 0, i32 51
  %16 = load ptr, ptr %15, align 8
  %17 = load i32, ptr @xmcp_service_port, align 4
  %18 = call ptr @tcp_port_to_display(ptr noundef %16, i32 noundef %17)
  call void (ptr, ptr, ...) @proto_item_append_text(ptr noundef %13, ptr noundef @.str.253, ptr noundef %18)
  br label %41

19:                                               ; preds = %9
  %20 = load ptr, ptr @xmcp_it_service_port, align 8
  %21 = load ptr, ptr %2, align 8
  %22 = getelementptr inbounds nuw %struct._packet_info, ptr %21, i32 0, i32 51
  %23 = load ptr, ptr %22, align 8
  %24 = load i32, ptr @xmcp_service_port, align 4
  %25 = call ptr @udp_port_to_display(ptr noundef %23, i32 noundef %24)
  call void (ptr, ptr, ...) @proto_item_append_text(ptr noundef %20, ptr noundef @.str.254, ptr noundef %25)
  br label %41

26:                                               ; preds = %9
  %27 = load ptr, ptr @xmcp_it_service_port, align 8
  %28 = load ptr, ptr %2, align 8
  %29 = getelementptr inbounds nuw %struct._packet_info, ptr %28, i32 0, i32 51
  %30 = load ptr, ptr %29, align 8
  %31 = load i32, ptr @xmcp_service_port, align 4
  %32 = call ptr @dccp_port_to_display(ptr noundef %30, i32 noundef %31)
  call void (ptr, ptr, ...) @proto_item_append_text(ptr noundef %27, ptr noundef @.str.255, ptr noundef %32)
  br label %41

33:                                               ; preds = %9
  %34 = load ptr, ptr @xmcp_it_service_port, align 8
  %35 = load ptr, ptr %2, align 8
  %36 = getelementptr inbounds nuw %struct._packet_info, ptr %35, i32 0, i32 51
  %37 = load ptr, ptr %36, align 8
  %38 = load i32, ptr @xmcp_service_port, align 4
  %39 = call ptr @sctp_port_to_display(ptr noundef %37, i32 noundef %38)
  call void (ptr, ptr, ...) @proto_item_append_text(ptr noundef %34, ptr noundef @.str.256, ptr noundef %39)
  br label %41

40:                                               ; preds = %9
  br label %41

41:                                               ; preds = %8, %40, %33, %26, %19, %12
  ret void
}