; Function Attrs: null_pointer_is_valid sspstrong uwtable
define internal fastcc void @add_xmcp_port_name(ptr noundef readonly captures(none) %0) unnamed_addr #0 {
  %2 = load ptr, ptr @xmcp_it_service_port, align 8
  %3 = icmp eq ptr %2, null
  %4 = load i32, ptr @xmcp_service_port, align 4
  %5 = icmp eq i32 %4, -1
  %or.cond = select i1 %3, i1 true, i1 %5
  br i1 %or.cond, label %24, label %6

6:                                                ; preds = %1
  %7 = load i16, ptr @xmcp_service_protocol, align 2
  switch i16 %7, label %24 [
    i16 6, label %8
    i16 17, label %12
    i16 33, label %16
    i16 132, label %20
  ]

8:                                                ; preds = %6
  %9 = getelementptr inbounds nuw i8, ptr %0, i64 408
  %10 = load ptr, ptr %9, align 8
  %11 = tail call ptr @tcp_port_to_display(ptr noundef %10, i32 noundef %4)
  tail call void (ptr, ptr, ...) @proto_item_append_text(ptr noundef nonnull %2, ptr noundef nonnull @.str.253, ptr noundef %11)
  br label %24

12:                                               ; preds = %6
  %13 = getelementptr inbounds nuw i8, ptr %0, i64 408
  %14 = load ptr, ptr %13, align 8
  %15 = tail call ptr @udp_port_to_display(ptr noundef %14, i32 noundef %4)
  tail call void (ptr, ptr, ...) @proto_item_append_text(ptr noundef nonnull %2, ptr noundef nonnull @.str.254, ptr noundef %15)
  br label %24

16:                                               ; preds = %6
  %17 = getelementptr inbounds nuw i8, ptr %0, i64 408
  %18 = load ptr, ptr %17, align 8
  %19 = tail call ptr @dccp_port_to_display(ptr noundef %18, i32 noundef %4)
  tail call void (ptr, ptr, ...) @proto_item_append_text(ptr noundef nonnull %2, ptr noundef nonnull @.str.255, ptr noundef %19)
  br label %24

20:                                               ; preds = %6
  %21 = getelementptr inbounds nuw i8, ptr %0, i64 408
  %22 = load ptr, ptr %21, align 8
  %23 = tail call ptr @sctp_port_to_display(ptr noundef %22, i32 noundef %4)
  tail call void (ptr, ptr, ...) @proto_item_append_text(ptr noundef nonnull %2, ptr noundef nonnull @.str.256, ptr noundef %23)
  br label %24

24:                                               ; preds = %6, %1, %20, %16, %12, %8
  ret void
}